target datalayout = "e-m:e-p270:32:32-p271:32:32-p272:64:64-i64:64-i128:128-f80:128-n8:16:32:64-S128"
target triple = "x86_64-pc-linux-gnu"

%struct.wtap_rec = type { i32, i32, i32, %struct.nstime_t, i32, %struct.nstime_t, i8, %union.anon, ptr, i8, %struct.Buffer, %struct.Buffer }
%struct.nstime_t = type { i64, i32 }
%union.anon = type { %struct.wtap_packet_header }
%struct.wtap_packet_header = type { i32, i32, i32, i32, %union.wtap_pseudo_header }
%union.wtap_pseudo_header = type { %struct.erf_mc_phdr }
%struct.erf_mc_phdr = type { %struct.erf_phdr, [16 x %struct.erf_ehdr], %union.anon.1 }
%struct.erf_phdr = type { i64, i8, i8, i16, i16, i16 }
%struct.erf_ehdr = type { i64 }
%union.anon.1 = type { i32 }
%struct.Buffer = type { ptr, i64, i64, i64 }
%struct.epan_dissect = type { ptr, ptr, ptr, %struct._packet_info }
%struct._packet_info = type { ptr, ptr, i32, i32, %struct.nstime_t, %struct.nstime_t, %struct.nstime_t, i8, ptr, ptr, ptr, ptr, %struct._address, %struct._address, %struct._address, %struct._address, %struct._address, %struct._address, i32, ptr, i8, [3 x i8], %struct.anon.3, i32, i32, i32, i32, ptr, i8, ptr, ptr, i16, i16, i32, i32, i16, i32, i32, ptr, ptr, ptr, i8, i8, i16, i16, i16, i32, i16, i16, ptr, ptr, ptr, ptr, ptr, i32, i32 }
%struct._address = type { i32, i32, ptr, ptr }
%struct.anon.3 = type { i8, [3 x i8] }
%struct._th_t = type { i32, [8 x ptr] }
%struct._capture_file = type { ptr, i32, ptr, ptr, i8, i8, i8, i64, i16, i32, i32, i32, ptr, i32, i64, i32, i32, i32, i32, i8, i32, %struct.nstime_t, i32, ptr, ptr, ptr, i8, i8, i32, ptr, i8, i8, i8, i8, i8, i32, i32, i8, ptr, i32, i32, i8, %struct.packet_provider_data, i32, i32, %struct.epan_column_info, ptr, ptr, ptr, %struct.wtap_rec, %struct.Buffer, ptr, i64, i32 }
%struct.packet_provider_data = type { ptr, ptr, ptr, ptr, ptr, ptr }
%struct.epan_column_info = type { ptr, i32, ptr, ptr, ptr, %struct.col_expr_t, i8, ptr }
%struct.col_expr_t = type { ptr, ptr }
%struct._GString = type { ptr, i64, i64 }
%struct._frame_data = type <{ i32, i32, i32, i32, i32, [4 x i8], i64, ptr, ptr, ptr, i8, i16, [5 x i8], %struct.nstime_t, %struct.nstime_t, i32, i32 }>
%struct.rlc_segment = type { ptr, i32, i64, i32, i8, i32, i16, i32, i16, [512 x i32], i16, i8, i16, i16, i16, i8, i8, i16 }
%struct.rlc_3gpp_tap_info = type { i8, i8, i8, i8, i16, i16, i16, i16, i8, %struct.nstime_t, i8, i8, i32, i8, i8, i32, i16, [512 x i32], i16 }

@.str = private unnamed_addr constant [18 x i8] c"rlc-lte or rlc-nr\00", align 1
@__func__.select_rlc_lte_session = private unnamed_addr constant [23 x i8] c"select_rlc_lte_session\00", align 1
@.str.1 = private unnamed_addr constant [9 x i8] c"rlc-3gpp\00", align 1
@stderr = external global ptr, align 8
@.str.2 = private unnamed_addr constant [52 x i8] c"wireshark: Couldn't register rlc_lte_graph tap: %s\0A\00", align 1
@.str.3 = private unnamed_addr constant [40 x i8] c"Selected packet doesn't have an RLC PDU\00", align 1
@.str.4 = private unnamed_addr constant [61 x i8] c"The selected packet has more than one LTE RLC channel in it.\00", align 1

; Function Attrs: null_pointer_is_valid sspstrong uwtable
define hidden ptr @select_rlc_lte_session(ptr noundef %0, ptr noundef %1, ptr noundef %2) #1 {
  %4 = alloca ptr, align 8
  %5 = alloca ptr, align 8
  %6 = alloca ptr, align 8
  %7 = alloca ptr, align 8
  %8 = alloca ptr, align 8
  %9 = alloca %struct.wtap_rec, align 8
  %10 = alloca %struct.epan_dissect, align 8
  %11 = alloca ptr, align 8
  %12 = alloca ptr, align 8
  %13 = alloca %struct.nstime_t, align 8
  %14 = alloca %struct._th_t, align 8
  %15 = alloca i32, align 4
  store ptr %0, ptr %5, align 8
  store ptr %1, ptr %6, align 8
  store ptr %2, ptr %7, align 8
  call void @llvm.lifetime.start.p0(i64 8, ptr %8) #10
  call void @llvm.lifetime.start.p0(i64 312, ptr %9) #10
  call void @llvm.lifetime.start.p0(i64 464, ptr %10) #10
  call void @llvm.lifetime.start.p0(i64 8, ptr %11) #10
  call void @llvm.lifetime.start.p0(i64 8, ptr %12) #10
  call void @llvm.lifetime.start.p0(i64 16, ptr %13) #10
  call void @llvm.lifetime.start.p0(i64 72, ptr %14) #10
  call void @llvm.memset.p0.i64(ptr align 8 %14, i8 0, i64 72, i1 false)
  %16 = load ptr, ptr %5, align 8
  %17 = getelementptr inbounds nuw %struct._capture_file, ptr %16, i32 0, i32 1
  %18 = load i32, ptr %17, align 8
  %19 = icmp eq i32 %18, 0
  br i1 %19, label %20, label %21

20:                                               ; preds = %3
  store ptr null, ptr %4, align 8
  store i32 1, ptr %15, align 4
  br label %159

21:                                               ; preds = %3
  %22 = call zeroext i1 @dfilter_compile_full(ptr noundef @.str, ptr noundef %11, ptr noundef null, i32 noundef 6, ptr noundef @__func__.select_rlc_lte_session)
  br i1 %22, label %24, label %23

23:                                               ; preds = %21
  store ptr null, ptr %4, align 8
  store i32 1, ptr %15, align 4
  br label %159

24:                                               ; preds = %21
  %25 = load ptr, ptr %5, align 8
  %26 = getelementptr inbounds nuw %struct._capture_file, ptr %25, i32 0, i32 46
  %27 = load ptr, ptr %26, align 8
  store ptr %27, ptr %8, align 8
  call void @wtap_rec_init(ptr noundef %9, i64 noundef 1514)
  %28 = load ptr, ptr %5, align 8
  %29 = call zeroext i1 @cf_read_current_record(ptr noundef %28)
  br i1 %29, label %32, label %30

30:                                               ; preds = %24
  %31 = load ptr, ptr %11, align 8
  call void @dfilter_free(ptr noundef %31)
  call void @wtap_rec_cleanup(ptr noundef %9)
  store ptr null, ptr %4, align 8
  store i32 1, ptr %15, align 4
  br label %159

32:                                               ; preds = %24
  %33 = call ptr @register_tap_listener(ptr noundef @.str.1, ptr noundef %14, ptr noundef null, i32 noundef 0, ptr noundef null, ptr noundef @tap_lte_rlc_packet, ptr noundef null, ptr noundef null)
  store ptr %33, ptr %12, align 8
  %34 = load ptr, ptr %12, align 8
  %35 = icmp ne ptr %34, null
  br i1 %35, label %36, label %45

36:                                               ; preds = %32
  %37 = load ptr, ptr @stderr, align 8
  %38 = load ptr, ptr %12, align 8
  %39 = getelementptr inbounds nuw %struct._GString, ptr %38, i32 0, i32 0
  %40 = load ptr, ptr %39, align 8
  %41 = call i32 (ptr, i32, ptr, ...) @__fprintf_chk(ptr noundef %37, i32 noundef 2, ptr noundef @.str.2, ptr noundef %40)
  %42 = load ptr, ptr %12, align 8
  %43 = call ptr @g_string_free(ptr noundef %42, i32 noundef 1)
  %44 = load ptr, ptr %11, align 8
  call void @dfilter_free(ptr noundef %44)
  call void @exit(i32 noundef 1) #11
  unreachable

45:                                               ; preds = %32
  %46 = load ptr, ptr %5, align 8
  %47 = getelementptr inbounds nuw %struct._capture_file, ptr %46, i32 0, i32 0
  %48 = load ptr, ptr %47, align 8
  call void @epan_dissect_init(ptr noundef %10, ptr noundef %48, i1 noundef zeroext true, i1 noundef zeroext false)
  %49 = load ptr, ptr %11, align 8
  call void @epan_dissect_prime_with_dfilter(ptr noundef %10, ptr noundef %49)
  %50 = load ptr, ptr %5, align 8
  %51 = getelementptr inbounds nuw %struct._capture_file, ptr %50, i32 0, i32 8
  %52 = load i16, ptr %51, align 8
  %53 = zext i16 %52 to i32
  %54 = load ptr, ptr %5, align 8
  %55 = getelementptr inbounds nuw %struct._capture_file, ptr %54, i32 0, i32 49
  %56 = load ptr, ptr %8, align 8
  call void @epan_dissect_run_with_taps(ptr noundef %10, i32 noundef %53, ptr noundef %55, ptr noundef %56, ptr noundef null)
  %57 = getelementptr inbounds nuw %struct.epan_dissect, ptr %10, i32 0, i32 3
  %58 = getelementptr inbounds nuw %struct._packet_info, ptr %57, i32 0, i32 5
  call void @llvm.memcpy.p0.p0.i64(ptr align 8 %13, ptr align 8 %58, i64 16, i1 false)
  call void @epan_dissect_cleanup(ptr noundef %10)
  call void @remove_tap_listener(ptr noundef %14)
  %59 = getelementptr inbounds nuw %struct._th_t, ptr %14, i32 0, i32 0
  %60 = load i32, ptr %59, align 8
  %61 = icmp eq i32 %60, 0
  br i1 %61, label %62, label %65

62:                                               ; preds = %45
  call void @wtap_rec_cleanup(ptr noundef %9)
  %63 = call noalias ptr @g_strdup(ptr noundef @.str.3)
  %64 = load ptr, ptr %7, align 8
  store ptr %63, ptr %64, align 8
  store ptr null, ptr %4, align 8
  store i32 1, ptr %15, align 4
  br label %159

65:                                               ; preds = %45
  %66 = getelementptr inbounds nuw %struct._th_t, ptr %14, i32 0, i32 0
  %67 = load i32, ptr %66, align 8
  %68 = icmp sgt i32 %67, 1
  br i1 %68, label %69, label %72

69:                                               ; preds = %65
  call void @wtap_rec_cleanup(ptr noundef %9)
  %70 = call noalias ptr @g_strdup(ptr noundef @.str.4)
  %71 = load ptr, ptr %7, align 8
  store ptr %70, ptr %71, align 8
  store ptr null, ptr %4, align 8
  store i32 1, ptr %15, align 4
  br label %159

72:                                               ; preds = %65
  %73 = load ptr, ptr %8, align 8
  %74 = getelementptr inbounds nuw %struct._frame_data, ptr %73, i32 0, i32 0
  %75 = load i32, ptr %74, align 8
  %76 = load ptr, ptr %6, align 8
  %77 = getelementptr inbounds nuw %struct.rlc_segment, ptr %76, i32 0, i32 1
  store i32 %75, ptr %77, align 8
  %78 = getelementptr inbounds nuw %struct.nstime_t, ptr %13, i32 0, i32 0
  %79 = load i64, ptr %78, align 8
  %80 = load ptr, ptr %6, align 8
  %81 = getelementptr inbounds nuw %struct.rlc_segment, ptr %80, i32 0, i32 2
  store i64 %79, ptr %81, align 8
  %82 = getelementptr inbounds nuw %struct.nstime_t, ptr %13, i32 0, i32 1
  %83 = load i32, ptr %82, align 8
  %84 = sdiv i32 %83, 1000
  %85 = load ptr, ptr %6, align 8
  %86 = getelementptr inbounds nuw %struct.rlc_segment, ptr %85, i32 0, i32 3
  store i32 %84, ptr %86, align 8
  %87 = getelementptr inbounds nuw %struct._th_t, ptr %14, i32 0, i32 1
  %88 = getelementptr [8 x ptr], ptr %87, i64 0, i64 0
  %89 = load ptr, ptr %88, align 8
  %90 = getelementptr inbounds nuw %struct.rlc_3gpp_tap_info, ptr %89, i32 0, i32 0
  %91 = load i8, ptr %90, align 8
  %92 = load ptr, ptr %6, align 8
  %93 = getelementptr inbounds nuw %struct.rlc_segment, ptr %92, i32 0, i32 11
  store i8 %91, ptr %93, align 2
  %94 = getelementptr inbounds nuw %struct._th_t, ptr %14, i32 0, i32 1
  %95 = getelementptr [8 x ptr], ptr %94, i64 0, i64 0
  %96 = load ptr, ptr %95, align 8
  %97 = getelementptr inbounds nuw %struct.rlc_3gpp_tap_info, ptr %96, i32 0, i32 4
  %98 = load i16, ptr %97, align 4
  %99 = load ptr, ptr %6, align 8
  %100 = getelementptr inbounds nuw %struct.rlc_segment, ptr %99, i32 0, i32 12
  store i16 %98, ptr %100, align 4
  %101 = getelementptr inbounds nuw %struct._th_t, ptr %14, i32 0, i32 1
  %102 = getelementptr [8 x ptr], ptr %101, i64 0, i64 0
  %103 = load ptr, ptr %102, align 8
  %104 = getelementptr inbounds nuw %struct.rlc_3gpp_tap_info, ptr %103, i32 0, i32 5
  %105 = load i16, ptr %104, align 2
  %106 = load ptr, ptr %6, align 8
  %107 = getelementptr inbounds nuw %struct.rlc_segment, ptr %106, i32 0, i32 13
  store i16 %105, ptr %107, align 2
  %108 = getelementptr inbounds nuw %struct._th_t, ptr %14, i32 0, i32 1
  %109 = getelementptr [8 x ptr], ptr %108, i64 0, i64 0
  %110 = load ptr, ptr %109, align 8
  %111 = getelementptr inbounds nuw %struct.rlc_3gpp_tap_info, ptr %110, i32 0, i32 6
  %112 = load i16, ptr %111, align 8
  %113 = load ptr, ptr %6, align 8
  %114 = getelementptr inbounds nuw %struct.rlc_segment, ptr %113, i32 0, i32 14
  store i16 %112, ptr %114, align 8
  %115 = getelementptr inbounds nuw %struct._th_t, ptr %14, i32 0, i32 1
  %116 = getelementptr [8 x ptr], ptr %115, i64 0, i64 0
  %117 = load ptr, ptr %116, align 8
  %118 = getelementptr inbounds nuw %struct.rlc_3gpp_tap_info, ptr %117, i32 0, i32 1
  %119 = load i8, ptr %118, align 1
  %120 = load ptr, ptr %6, align 8
  %121 = getelementptr inbounds nuw %struct.rlc_segment, ptr %120, i32 0, i32 15
  store i8 %119, ptr %121, align 2
  %122 = getelementptr inbounds nuw %struct._th_t, ptr %14, i32 0, i32 1
  %123 = getelementptr [8 x ptr], ptr %122, i64 0, i64 0
  %124 = load ptr, ptr %123, align 8
  %125 = getelementptr inbounds nuw %struct.rlc_3gpp_tap_info, ptr %124, i32 0, i32 14
  %126 = load i8, ptr %125, align 1
  %127 = icmp ne i8 %126, 0
  %128 = load ptr, ptr %6, align 8
  %129 = getelementptr inbounds nuw %struct.rlc_segment, ptr %128, i32 0, i32 4
  %130 = zext i1 %127 to i8
  store i8 %130, ptr %129, align 4
  %131 = load ptr, ptr %6, align 8
  %132 = getelementptr inbounds nuw %struct.rlc_segment, ptr %131, i32 0, i32 4
  %133 = load i8, ptr %132, align 4, !range !6, !noundef !7
  %134 = trunc i8 %133 to i1
  br i1 %134, label %142, label %135

135:                                              ; preds = %72
  %136 = getelementptr inbounds nuw %struct._th_t, ptr %14, i32 0, i32 1
  %137 = getelementptr [8 x ptr], ptr %136, i64 0, i64 0
  %138 = load ptr, ptr %137, align 8
  %139 = getelementptr inbounds nuw %struct.rlc_3gpp_tap_info, ptr %138, i32 0, i32 2
  %140 = load i8, ptr %139, align 2
  %141 = zext i8 %140 to i32
  br label %151

142:                                              ; preds = %72
  %143 = getelementptr inbounds nuw %struct._th_t, ptr %14, i32 0, i32 1
  %144 = getelementptr [8 x ptr], ptr %143, i64 0, i64 0
  %145 = load ptr, ptr %144, align 8
  %146 = getelementptr inbounds nuw %struct.rlc_3gpp_tap_info, ptr %145, i32 0, i32 2
  %147 = load i8, ptr %146, align 2
  %148 = icmp ne i8 %147, 0
  %149 = xor i1 %148, true
  %150 = zext i1 %149 to i32
  br label %151

151:                                              ; preds = %142, %135
  %152 = phi i32 [ %141, %135 ], [ %150, %142 ]
  %153 = trunc i32 %152 to i8
  %154 = load ptr, ptr %6, align 8
  %155 = getelementptr inbounds nuw %struct.rlc_segment, ptr %154, i32 0, i32 16
  store i8 %153, ptr %155, align 1
  call void @wtap_rec_cleanup(ptr noundef %9)
  %156 = getelementptr inbounds nuw %struct._th_t, ptr %14, i32 0, i32 1
  %157 = getelementptr [8 x ptr], ptr %156, i64 0, i64 0
  %158 = load ptr, ptr %157, align 8
  store ptr %158, ptr %4, align 8
  store i32 1, ptr %15, align 4
  br label %159

159:                                              ; preds = %151, %69, %62, %30, %23, %20
  call void @llvm.lifetime.end.p0(i64 72, ptr %14) #10
  call void @llvm.lifetime.end.p0(i64 16, ptr %13) #10
  call void @llvm.lifetime.end.p0(i64 8, ptr %12) #10
  call void @llvm.lifetime.end.p0(i64 8, ptr %11) #10
  call void @llvm.lifetime.end.p0(i64 464, ptr %10) #10
  call void @llvm.lifetime.end.p0(i64 312, ptr %9) #10
  call void @llvm.lifetime.end.p0(i64 8, ptr %8) #10
  %160 = load ptr, ptr %4, align 8
  ret ptr %160
}