; Function Attrs: null_pointer_is_valid sspstrong uwtable
define hidden ptr @select_rlc_lte_session(ptr noundef %0, ptr noundef writeonly captures(none) %1, ptr noundef writeonly captures(none) %2) local_unnamed_addr #1 {
  %4 = alloca %struct.wtap_rec, align 8
  %5 = alloca %struct.epan_dissect, align 8
  %6 = alloca ptr, align 8
  %7 = alloca %struct._th_t, align 8
  call void @llvm.lifetime.start.p0(i64 312, ptr nonnull %4) #9
  call void @llvm.lifetime.start.p0(i64 464, ptr nonnull %5) #9
  call void @llvm.lifetime.start.p0(i64 8, ptr nonnull %6) #9
  call void @llvm.lifetime.start.p0(i64 72, ptr nonnull %7) #9
  call void @llvm.memset.p0.i64(ptr noundef nonnull align 8 dereferenceable(72) %7, i8 0, i64 72, i1 false)
  %8 = getelementptr inbounds nuw i8, ptr %0, i64 8
  %9 = load i32, ptr %8, align 8
  %10 = icmp eq i32 %9, 0
  br i1 %10, label %76, label %11

11:                                               ; preds = %3
  %12 = call zeroext i1 @dfilter_compile_full(ptr noundef nonnull @.str, ptr noundef nonnull %6, ptr noundef null, i32 noundef 6, ptr noundef nonnull @__func__.select_rlc_lte_session)
  br i1 %12, label %13, label %76

13:                                               ; preds = %11
  %14 = getelementptr inbounds nuw i8, ptr %0, i64 352
  %15 = load ptr, ptr %14, align 8
  call void @wtap_rec_init(ptr noundef nonnull %4, i64 noundef 1514)
  %16 = call zeroext i1 @cf_read_current_record(ptr noundef %0)
  br i1 %16, label %19, label %17

17:                                               ; preds = %13
  %18 = load ptr, ptr %6, align 8
  call void @dfilter_free(ptr noundef %18)
  call void @wtap_rec_cleanup(ptr noundef nonnull %4)
  br label %76

19:                                               ; preds = %13
  %20 = call ptr @register_tap_listener(ptr noundef nonnull @.str.1, ptr noundef nonnull %7, ptr noundef null, i32 noundef 0, ptr noundef null, ptr noundef nonnull @tap_lte_rlc_packet, ptr noundef null, ptr noundef null)
  %.not = icmp eq ptr %20, null
  br i1 %.not, label %27, label %21

21:                                               ; preds = %19
  %22 = load ptr, ptr @stderr, align 8
  %23 = load ptr, ptr %20, align 8
  %24 = call i32 (ptr, i32, ptr, ...) @__fprintf_chk(ptr noundef %22, i32 noundef 2, ptr noundef nonnull @.str.2, ptr noundef %23)
  %25 = call ptr @g_string_free(ptr noundef nonnull %20, i32 noundef 1)
  %26 = load ptr, ptr %6, align 8
  call void @dfilter_free(ptr noundef %26)
  call void @exit(i32 noundef 1) #10
  unreachable

27:                                               ; preds = %19
  %28 = load ptr, ptr %0, align 8
  call void @epan_dissect_init(ptr noundef nonnull %5, ptr noundef %28, i1 noundef zeroext true, i1 noundef zeroext false)
  %29 = load ptr, ptr %6, align 8
  call void @epan_dissect_prime_with_dfilter(ptr noundef nonnull %5, ptr noundef %29)
  %30 = getelementptr inbounds nuw i8, ptr %0, i64 48
  %31 = load i16, ptr %30, align 8
  %32 = zext i16 %31 to i32
  %33 = getelementptr inbounds nuw i8, ptr %0, i64 376
  call void @epan_dissect_run_with_taps(ptr noundef nonnull %5, i32 noundef %32, ptr noundef nonnull %33, ptr noundef %15, ptr noundef null)
  %34 = getelementptr inbounds nuw i8, ptr %5, i64 64
  %.sroa.0.0.copyload = load i64, ptr %34, align 8
  %.sroa.4.0..sroa_idx = getelementptr inbounds nuw i8, ptr %5, i64 72
  %.sroa.4.0.copyload = load i32, ptr %.sroa.4.0..sroa_idx, align 8
  call void @epan_dissect_cleanup(ptr noundef nonnull %5)
  call void @remove_tap_listener(ptr noundef nonnull %7)
  %35 = load i32, ptr %7, align 8
  %36 = icmp eq i32 %35, 0
  br i1 %36, label %37, label %39

37:                                               ; preds = %27
  call void @wtap_rec_cleanup(ptr noundef nonnull %4)
  %38 = call noalias ptr @g_strdup(ptr noundef nonnull @.str.3)
  store ptr %38, ptr %2, align 8
  br label %76

39:                                               ; preds = %27
  %40 = icmp sgt i32 %35, 1
  br i1 %40, label %41, label %43

41:                                               ; preds = %39
  call void @wtap_rec_cleanup(ptr noundef nonnull %4)
  %42 = call noalias ptr @g_strdup(ptr noundef nonnull @.str.4)
  store ptr %42, ptr %2, align 8
  br label %76

43:                                               ; preds = %39
  %44 = load i32, ptr %15, align 8
  %45 = getelementptr inbounds nuw i8, ptr %1, i64 8
  store i32 %44, ptr %45, align 8
  %46 = getelementptr inbounds nuw i8, ptr %1, i64 16
  store i64 %.sroa.0.0.copyload, ptr %46, align 8
  %47 = sdiv i32 %.sroa.4.0.copyload, 1000
  %48 = getelementptr inbounds nuw i8, ptr %1, i64 24
  store i32 %47, ptr %48, align 8
  %49 = getelementptr inbounds nuw i8, ptr %7, i64 8
  %50 = load ptr, ptr %49, align 8
  %51 = load i8, ptr %50, align 8
  %52 = getelementptr inbounds nuw i8, ptr %1, i64 2098
  store i8 %51, ptr %52, align 2
  %53 = getelementptr inbounds nuw i8, ptr %50, i64 4
  %54 = load i16, ptr %53, align 4
  %55 = getelementptr inbounds nuw i8, ptr %1, i64 2100
  store i16 %54, ptr %55, align 4
  %56 = getelementptr inbounds nuw i8, ptr %50, i64 6
  %57 = load i16, ptr %56, align 2
  %58 = getelementptr inbounds nuw i8, ptr %1, i64 2102
  store i16 %57, ptr %58, align 2
  %59 = getelementptr inbounds nuw i8, ptr %50, i64 8
  %60 = load i16, ptr %59, align 8
  %61 = getelementptr inbounds nuw i8, ptr %1, i64 2104
  store i16 %60, ptr %61, align 8
  %62 = getelementptr inbounds nuw i8, ptr %50, i64 1
  %63 = load i8, ptr %62, align 1
  %64 = getelementptr inbounds nuw i8, ptr %1, i64 2106
  store i8 %63, ptr %64, align 2
  %65 = getelementptr inbounds nuw i8, ptr %50, i64 41
  %66 = load i8, ptr %65, align 1
  %67 = icmp ne i8 %66, 0
  %68 = getelementptr inbounds nuw i8, ptr %1, i64 28
  %69 = zext i1 %67 to i8
  store i8 %69, ptr %68, align 4
  %70 = getelementptr inbounds nuw i8, ptr %50, i64 2
  %71 = load i8, ptr %70, align 2
  %.not27 = icmp eq i8 %71, 0
  %72 = zext i1 %.not27 to i8
  %73 = select i1 %67, i8 %72, i8 %71
  %74 = getelementptr inbounds nuw i8, ptr %1, i64 2107
  store i8 %73, ptr %74, align 1
  call void @wtap_rec_cleanup(ptr noundef nonnull %4)
  %75 = load ptr, ptr %49, align 8
  br label %76

76:                                               ; preds = %11, %3, %43, %41, %37, %17
  %.0 = phi ptr [ null, %37 ], [ null, %41 ], [ %75, %43 ], [ null, %17 ], [ null, %3 ], [ null, %11 ]
  call void @llvm.lifetime.end.p0(i64 72, ptr nonnull %7) #9
  call void @llvm.lifetime.end.p0(i64 8, ptr nonnull %6) #9
  call void @llvm.lifetime.end.p0(i64 464, ptr nonnull %5) #9
  call void @llvm.lifetime.end.p0(i64 312, ptr nonnull %4) #9
  ret ptr %.0
}